target datalayout = "e-m:e-p270:32:32-p271:32:32-p272:64:64-i64:64-i128:128-f80:128-n8:16:32:64-S128"
target triple = "x86_64-unknown-linux-gnu"

%class.btDiscreteDynamicsWorld = type <{ %class.btDynamicsWorld, %class.btAlignedObjectArray.0, ptr, ptr, ptr, %class.btAlignedObjectArray.0, %class.btAlignedObjectArray.4, %class.btVector3, float, float, i8, i8, i8, i8, [4 x i8], %class.btAlignedObjectArray.8, i32, i8, [3 x i8], %class.btAlignedObjectArray.12, %class.btSpinMutex, [4 x i8] }>
%class.btDynamicsWorld = type { %class.btCollisionWorld.base, ptr, ptr, ptr, %struct.btContactSolverInfo }
%class.btCollisionWorld.base = type <{ ptr, %class.btAlignedObjectArray, ptr, %struct.btDispatcherInfo, ptr, ptr, i8 }>
%class.btAlignedObjectArray = type <{ %class.btAlignedAllocator, [3 x i8], i32, i32, [4 x i8], ptr, i8, [7 x i8] }>
%class.btAlignedAllocator = type { i8 }
%struct.btDispatcherInfo = type <{ float, i32, i32, float, i8, [7 x i8], ptr, i8, i8, i8, i8, float, i8, [3 x i8], float, i8, [7 x i8] }>
%struct.btContactSolverInfo = type { %struct.btContactSolverInfoData }
%struct.btContactSolverInfoData = type { float, float, float, float, float, i32, float, float, float, float, float, float, float, float, float, float, i32, float, float, float, float, float, i32, i32, i32, float, float, float, float, i8, i8, i32, i32 }
%class.btAlignedObjectArray.0 = type <{ %class.btAlignedAllocator.1, [3 x i8], i32, i32, [4 x i8], ptr, i8, [7 x i8] }>
%class.btAlignedAllocator.1 = type { i8 }
%class.btAlignedObjectArray.4 = type <{ %class.btAlignedAllocator.5, [3 x i8], i32, i32, [4 x i8], ptr, i8, [7 x i8] }>
%class.btAlignedAllocator.5 = type { i8 }
%class.btVector3 = type { [4 x float] }
%class.btAlignedObjectArray.8 = type <{ %class.btAlignedAllocator.9, [3 x i8], i32, i32, [4 x i8], ptr, i8, [7 x i8] }>
%class.btAlignedAllocator.9 = type { i8 }
%class.btAlignedObjectArray.12 = type <{ %class.btAlignedAllocator.13, [3 x i8], i32, i32, [4 x i8], ptr, i8, [7 x i8] }>
%class.btAlignedAllocator.13 = type { i8 }
%class.btSpinMutex = type { i32 }
%class.btCollisionWorld = type <{ ptr, %class.btAlignedObjectArray, ptr, %struct.btDispatcherInfo, ptr, ptr, i8, [7 x i8] }>
%class.btCollisionObject = type <{ ptr, %class.btTransform, %class.btTransform, %class.btVector3, %class.btVector3, %class.btVector3, i32, float, ptr, ptr, ptr, ptr, i32, i32, i32, i32, i32, float, float, float, float, float, float, float, i32, [4 x i8], ptr, i32, i32, i32, float, float, float, i32, [4 x i8], %class.btAlignedObjectArray.36, i32, %class.btVector3, [4 x i8] }>
%class.btTransform = type { %class.btMatrix3x3, %class.btVector3 }
%class.btMatrix3x3 = type { [3 x %class.btVector3] }
%class.btAlignedObjectArray.36 = type <{ %class.btAlignedAllocator.37, [3 x i8], i32, i32, [4 x i8], ptr, i8, [7 x i8] }>
%class.btAlignedAllocator.37 = type { i8 }
%class.btChunk = type { i32, i32, ptr, i32, i32 }

; Function Attrs: mustprogress nounwind uwtable
define linkonce_odr dso_local noundef nonnull align 8 dereferenceable(8) ptr @_ZN20btAlignedObjectArrayIP17btTypedConstraintEixEi(ptr noundef nonnull align 8 dereferenceable(25) %this, i32 noundef %n) #1 comdat align 2 {
entry:
  %this.addr = alloca ptr, align 8
  %n.addr = alloca i32, align 4
  store ptr %this, ptr %this.addr, align 8
  store i32 %n, ptr %n.addr, align 4
  %this1 = load ptr, ptr %this.addr, align 8
  %m_data = getelementptr inbounds %class.btAlignedObjectArray.0, ptr %this1, i32 0, i32 5
  %0 = load ptr, ptr %m_data, align 8
  %1 = load i32, ptr %n.addr, align 4
  %idxprom = sext i32 %1 to i64
  %arrayidx = getelementptr inbounds ptr, ptr %0, i64 %idxprom
  ret ptr %arrayidx
}

; Function Attrs: mustprogress nounwind uwtable
define linkonce_odr dso_local noundef i32 @_ZNK20btAlignedObjectArrayIP17btTypedConstraintE4sizeEv(ptr noundef nonnull align 8 dereferenceable(25) %this) #1 comdat align 2 {
entry:
  %this.addr = alloca ptr, align 8
  store ptr %this, ptr %this.addr, align 8
  %this1 = load ptr, ptr %this.addr, align 8
  %m_size = getelementptr inbounds %class.btAlignedObjectArray.0, ptr %this1, i32 0, i32 2
  %0 = load i32, ptr %m_size, align 4
  ret i32 %0
}

; Function Attrs: mustprogress nounwind uwtable
define linkonce_odr dso_local noundef i32 @_ZNK17btCollisionObject15getInternalTypeEv(ptr noundef nonnull align 8 dereferenceable(372) %this) #1 comdat align 2 {
entry:
  %this.addr = alloca ptr, align 8
  store ptr %this, ptr %this.addr, align 8
  %this1 = load ptr, ptr %this.addr, align 8
  %m_internalType = getelementptr inbounds %class.btCollisionObject, ptr %this1, i32 0, i32 24
  %0 = load i32, ptr %m_internalType, align 8
  ret i32 %0
}

; Function Attrs: mustprogress nounwind uwtable
define linkonce_odr dso_local noundef nonnull align 8 dereferenceable(8) ptr @_ZN20btAlignedObjectArrayIP17btCollisionObjectEixEi(ptr noundef nonnull align 8 dereferenceable(25) %this, i32 noundef %n) #1 comdat align 2 {
entry:
  %this.addr = alloca ptr, align 8
  %n.addr = alloca i32, align 4
  store ptr %this, ptr %this.addr, align 8
  store i32 %n, ptr %n.addr, align 4
  %this1 = load ptr, ptr %this.addr, align 8
  %m_data = getelementptr inbounds %class.btAlignedObjectArray, ptr %this1, i32 0, i32 5
  %0 = load ptr, ptr %m_data, align 8
  %1 = load i32, ptr %n.addr, align 4
  %idxprom = sext i32 %1 to i64
  %arrayidx = getelementptr inbounds ptr, ptr %0, i64 %idxprom
  ret ptr %arrayidx
}

; Function Attrs: mustprogress nounwind uwtable
define linkonce_odr dso_local noundef i32 @_ZNK20btAlignedObjectArrayIP17btCollisionObjectE4sizeEv(ptr noundef nonnull align 8 dereferenceable(25) %this) #1 comdat align 2 {
entry:
  %this.addr = alloca ptr, align 8
  store ptr %this, ptr %this.addr, align 8
  %this1 = load ptr, ptr %this.addr, align 8
  %m_size = getelementptr inbounds %class.btAlignedObjectArray, ptr %this1, i32 0, i32 2
  %0 = load i32, ptr %m_size, align 4
  ret i32 %0
}

; Function Attrs: mustprogress uwtable
define dso_local void @_ZN23btDiscreteDynamicsWorld20serializeRigidBodiesEP12btSerializer(ptr noundef nonnull align 8 dereferenceable(508) %this, ptr noundef %serializer) #2 align 2 {
entry:
  %this.addr = alloca ptr, align 8
  %serializer.addr = alloca ptr, align 8
  %i = alloca i32, align 4
  %colObj = alloca ptr, align 8
  %len = alloca i32, align 4
  %chunk = alloca ptr, align 8
  %structType = alloca ptr, align 8
  %constraint = alloca ptr, align 8
  %size = alloca i32, align 4
  %chunk23 = alloca ptr, align 8
  %structType28 = alloca ptr, align 8
  store ptr %this, ptr %this.addr, align 8
  store ptr %serializer, ptr %serializer.addr, align 8
  %this1 = load ptr, ptr %this.addr, align 8
  store i32 0, ptr %i, align 4
  br label %for.cond

for.cond:                                         ; preds = %for.inc, %entry
  %0 = load i32, ptr %i, align 4
  %m_collisionObjects = getelementptr inbounds %class.btCollisionWorld, ptr %this1, i32 0, i32 1
  %call = call noundef i32 @_ZNK20btAlignedObjectArrayIP17btCollisionObjectE4sizeEv(ptr noundef nonnull align 8 dereferenceable(25) %m_collisionObjects)
  %cmp = icmp slt i32 %0, %call
  br i1 %cmp, label %for.body, label %for.end

for.body:                                         ; preds = %for.cond
  %m_collisionObjects2 = getelementptr inbounds %class.btCollisionWorld, ptr %this1, i32 0, i32 1
  %1 = load i32, ptr %i, align 4
  %call3 = call noundef nonnull align 8 dereferenceable(8) ptr @_ZN20btAlignedObjectArrayIP17btCollisionObjectEixEi(ptr noundef nonnull align 8 dereferenceable(25) %m_collisionObjects2, i32 noundef %1)
  %2 = load ptr, ptr %call3, align 8
  store ptr %2, ptr %colObj, align 8
  %3 = load ptr, ptr %colObj, align 8
  %call4 = call noundef i32 @_ZNK17btCollisionObject15getInternalTypeEv(ptr noundef nonnull align 8 dereferenceable(372) %3)
  %and = and i32 %call4, 2
  %tobool = icmp ne i32 %and, 0
  br i1 %tobool, label %if.then, label %if.end

if.then:                                          ; preds = %for.body
  %4 = load ptr, ptr %colObj, align 8
  %vtable = load ptr, ptr %4, align 8
  %vfn = getelementptr inbounds ptr, ptr %vtable, i64 4
  %5 = load ptr, ptr %vfn, align 8
  %call5 = call noundef i32 %5(ptr noundef nonnull align 8 dereferenceable(372) %4)
  store i32 %call5, ptr %len, align 4
  %6 = load ptr, ptr %serializer.addr, align 8
  %7 = load i32, ptr %len, align 4
  %conv = sext i32 %7 to i64
  %vtable6 = load ptr, ptr %6, align 8
  %vfn7 = getelementptr inbounds ptr, ptr %vtable6, i64 4
  %8 = load ptr, ptr %vfn7, align 8
  %call8 = call noundef ptr %8(ptr noundef nonnull align 8 dereferenceable(8) %6, i64 noundef %conv, i32 noundef 1)
  store ptr %call8, ptr %chunk, align 8
  %9 = load ptr, ptr %colObj, align 8
  %10 = load ptr, ptr %chunk, align 8
  %m_oldPtr = getelementptr inbounds %class.btChunk, ptr %10, i32 0, i32 2
  %11 = load ptr, ptr %m_oldPtr, align 8
  %12 = load ptr, ptr %serializer.addr, align 8
  %vtable9 = load ptr, ptr %9, align 8
  %vfn10 = getelementptr inbounds ptr, ptr %vtable9, i64 5
  %13 = load ptr, ptr %vfn10, align 8
  %call11 = call noundef ptr %13(ptr noundef nonnull align 8 dereferenceable(372) %9, ptr noundef %11, ptr noundef %12)
  store ptr %call11, ptr %structType, align 8
  %14 = load ptr, ptr %serializer.addr, align 8
  %15 = load ptr, ptr %chunk, align 8
  %16 = load ptr, ptr %structType, align 8
  %17 = load ptr, ptr %colObj, align 8
  %vtable12 = load ptr, ptr %14, align 8
  %vfn13 = getelementptr inbounds ptr, ptr %vtable12, i64 5
  %18 = load ptr, ptr %vfn13, align 8
  call void %18(ptr noundef nonnull align 8 dereferenceable(8) %14, ptr noundef %15, ptr noundef %16, i32 noundef 1497645650, ptr noundef %17)
  br label %if.end

if.end:                                           ; preds = %if.then, %for.body
  br label %for.inc

for.inc:                                          ; preds = %if.end
  %19 = load i32, ptr %i, align 4
  %inc = add nsw i32 %19, 1
  store i32 %inc, ptr %i, align 4
  br label %for.cond, !llvm.loop !29

for.end:                                          ; preds = %for.cond
  store i32 0, ptr %i, align 4
  br label %for.cond14

for.cond14:                                       ; preds = %for.inc35, %for.end
  %20 = load i32, ptr %i, align 4
  %m_constraints = getelementptr inbounds %class.btDiscreteDynamicsWorld, ptr %this1, i32 0, i32 5
  %call15 = call noundef i32 @_ZNK20btAlignedObjectArrayIP17btTypedConstraintE4sizeEv(ptr noundef nonnull align 8 dereferenceable(25) %m_constraints)
  %cmp16 = icmp slt i32 %20, %call15
  br i1 %cmp16, label %for.body17, label %for.end37

for.body17:                                       ; preds = %for.cond14
  %m_constraints18 = getelementptr inbounds %class.btDiscreteDynamicsWorld, ptr %this1, i32 0, i32 5
  %21 = load i32, ptr %i, align 4
  %call19 = call noundef nonnull align 8 dereferenceable(8) ptr @_ZN20btAlignedObjectArrayIP17btTypedConstraintEixEi(ptr noundef nonnull align 8 dereferenceable(25) %m_constraints18, i32 noundef %21)
  %22 = load ptr, ptr %call19, align 8
  store ptr %22, ptr %constraint, align 8
  %23 = load ptr, ptr %constraint, align 8
  %vtable20 = load ptr, ptr %23, align 8
  %vfn21 = getelementptr inbounds ptr, ptr %vtable20, i64 9
  %24 = load ptr, ptr %vfn21, align 8
  %call22 = call noundef i32 %24(ptr noundef nonnull align 8 dereferenceable(72) %23)
  store i32 %call22, ptr %size, align 4
  %25 = load ptr, ptr %serializer.addr, align 8
  %26 = load i32, ptr %size, align 4
  %conv24 = sext i32 %26 to i64
  %vtable25 = load ptr, ptr %25, align 8
  %vfn26 = getelementptr inbounds ptr, ptr %vtable25, i64 4
  %27 = load ptr, ptr %vfn26, align 8
  %call27 = call noundef ptr %27(ptr noundef nonnull align 8 dereferenceable(8) %25, i64 noundef %conv24, i32 noundef 1)
  store ptr %call27, ptr %chunk23, align 8
  %28 = load ptr, ptr %constraint, align 8
  %29 = load ptr, ptr %chunk23, align 8
  %m_oldPtr29 = getelementptr inbounds %class.btChunk, ptr %29, i32 0, i32 2
  %30 = load ptr, ptr %m_oldPtr29, align 8
  %31 = load ptr, ptr %serializer.addr, align 8
  %vtable30 = load ptr, ptr %28, align 8
  %vfn31 = getelementptr inbounds ptr, ptr %vtable30, i64 10
  %32 = load ptr, ptr %vfn31, align 8
  %call32 = call noundef ptr %32(ptr noundef nonnull align 8 dereferenceable(72) %28, ptr noundef %30, ptr noundef %31)
  store ptr %call32, ptr %structType28, align 8
  %33 = load ptr, ptr %serializer.addr, align 8
  %34 = load ptr, ptr %chunk23, align 8
  %35 = load ptr, ptr %structType28, align 8
  %36 = load ptr, ptr %constraint, align 8
  %vtable33 = load ptr, ptr %33, align 8
  %vfn34 = getelementptr inbounds ptr, ptr %vtable33, i64 5
  %37 = load ptr, ptr %vfn34, align 8
  call void %37(ptr noundef nonnull align 8 dereferenceable(8) %33, ptr noundef %34, ptr noundef %35, i32 noundef 1397641027, ptr noundef %36)
  br label %for.inc35

for.inc35:                                        ; preds = %for.body17
  %38 = load i32, ptr %i, align 4
  %inc36 = add nsw i32 %38, 1
  store i32 %inc36, ptr %i, align 4
  br label %for.cond14, !llvm.loop !30

for.end37:                                        ; preds = %for.cond14
  ret void
}