; Function Attrs: mustprogress uwtable
define dso_local void @_ZN23btDiscreteDynamicsWorld20serializeRigidBodiesEP12btSerializer(ptr nocapture noundef nonnull readonly align 8 dereferenceable(508) %this, ptr noundef %serializer) local_unnamed_addr #0 align 2 {
entry:
  %m_size.i = getelementptr inbounds i8, ptr %this, i64 12
  %0 = load i32, ptr %m_size.i, align 4
  %cmp22 = icmp sgt i32 %0, 0
  br i1 %cmp22, label %for.body.lr.ph, label %for.cond14.preheader

for.body.lr.ph:                                   ; preds = %entry
  %m_data.i = getelementptr inbounds i8, ptr %this, i64 24
  br label %for.body

for.cond14.preheader:                             ; preds = %for.inc, %entry
  %m_size.i18 = getelementptr inbounds i8, ptr %this, i64 340
  %1 = load i32, ptr %m_size.i18, align 4
  %cmp1624 = icmp sgt i32 %1, 0
  br i1 %cmp1624, label %for.body17.lr.ph, label %for.end37

for.body17.lr.ph:                                 ; preds = %for.cond14.preheader
  %m_data.i19 = getelementptr inbounds i8, ptr %this, i64 352
  br label %for.body17

for.body:                                         ; preds = %for.body.lr.ph, %for.inc
  %2 = phi i32 [ %0, %for.body.lr.ph ], [ %11, %for.inc ]
  %indvars.iv = phi i64 [ 0, %for.body.lr.ph ], [ %indvars.iv.next, %for.inc ]
  %3 = load ptr, ptr %m_data.i, align 8
  %arrayidx.i = getelementptr inbounds ptr, ptr %3, i64 %indvars.iv
  %4 = load ptr, ptr %arrayidx.i, align 8
  %m_internalType.i = getelementptr inbounds i8, ptr %4, i64 272
  %5 = load i32, ptr %m_internalType.i, align 8
  %and = and i32 %5, 2
  %tobool.not = icmp eq i32 %and, 0
  br i1 %tobool.not, label %for.inc, label %if.then

if.then:                                          ; preds = %for.body
  %vtable = load ptr, ptr %4, align 8
  %vfn = getelementptr inbounds i8, ptr %vtable, i64 32
  %6 = load ptr, ptr %vfn, align 8
  %call5 = tail call noundef i32 %6(ptr noundef nonnull align 8 dereferenceable(372) %4)
  %conv = sext i32 %call5 to i64
  %vtable6 = load ptr, ptr %serializer, align 8
  %vfn7 = getelementptr inbounds i8, ptr %vtable6, i64 32
  %7 = load ptr, ptr %vfn7, align 8
  %call8 = tail call noundef ptr %7(ptr noundef nonnull align 8 dereferenceable(8) %serializer, i64 noundef %conv, i32 noundef 1)
  %m_oldPtr = getelementptr inbounds i8, ptr %call8, i64 8
  %8 = load ptr, ptr %m_oldPtr, align 8
  %vtable9 = load ptr, ptr %4, align 8
  %vfn10 = getelementptr inbounds i8, ptr %vtable9, i64 40
  %9 = load ptr, ptr %vfn10, align 8
  %call11 = tail call noundef ptr %9(ptr noundef nonnull align 8 dereferenceable(372) %4, ptr noundef %8, ptr noundef nonnull %serializer)
  %vtable12 = load ptr, ptr %serializer, align 8
  %vfn13 = getelementptr inbounds i8, ptr %vtable12, i64 40
  %10 = load ptr, ptr %vfn13, align 8
  tail call void %10(ptr noundef nonnull align 8 dereferenceable(8) %serializer, ptr noundef %call8, ptr noundef %call11, i32 noundef 1497645650, ptr noundef nonnull %4)
  %.pre = load i32, ptr %m_size.i, align 4
  br label %for.inc

for.inc:                                          ; preds = %for.body, %if.then
  %11 = phi i32 [ %2, %for.body ], [ %.pre, %if.then ]
  %indvars.iv.next = add nuw nsw i64 %indvars.iv, 1
  %12 = sext i32 %11 to i64
  %cmp = icmp slt i64 %indvars.iv.next, %12
  br i1 %cmp, label %for.body, label %for.cond14.preheader, !llvm.loop !83

for.body17:                                       ; preds = %for.body17.lr.ph, %for.body17
  %indvars.iv27 = phi i64 [ 0, %for.body17.lr.ph ], [ %indvars.iv.next28, %for.body17 ]
  %13 = load ptr, ptr %m_data.i19, align 8
  %arrayidx.i21 = getelementptr inbounds ptr, ptr %13, i64 %indvars.iv27
  %14 = load ptr, ptr %arrayidx.i21, align 8
  %vtable20 = load ptr, ptr %14, align 8
  %vfn21 = getelementptr inbounds i8, ptr %vtable20, i64 72
  %15 = load ptr, ptr %vfn21, align 8
  %call22 = tail call noundef i32 %15(ptr noundef nonnull align 8 dereferenceable(72) %14)
  %conv24 = sext i32 %call22 to i64
  %vtable25 = load ptr, ptr %serializer, align 8
  %vfn26 = getelementptr inbounds i8, ptr %vtable25, i64 32
  %16 = load ptr, ptr %vfn26, align 8
  %call27 = tail call noundef ptr %16(ptr noundef nonnull align 8 dereferenceable(8) %serializer, i64 noundef %conv24, i32 noundef 1)
  %m_oldPtr29 = getelementptr inbounds i8, ptr %call27, i64 8
  %17 = load ptr, ptr %m_oldPtr29, align 8
  %vtable30 = load ptr, ptr %14, align 8
  %vfn31 = getelementptr inbounds i8, ptr %vtable30, i64 80
  %18 = load ptr, ptr %vfn31, align 8
  %call32 = tail call noundef ptr %18(ptr noundef nonnull align 8 dereferenceable(72) %14, ptr noundef %17, ptr noundef nonnull %serializer)
  %vtable33 = load ptr, ptr %serializer, align 8
  %vfn34 = getelementptr inbounds i8, ptr %vtable33, i64 40
  %19 = load ptr, ptr %vfn34, align 8
  tail call void %19(ptr noundef nonnull align 8 dereferenceable(8) %serializer, ptr noundef %call27, ptr noundef %call32, i32 noundef 1397641027, ptr noundef nonnull %14)
  %indvars.iv.next28 = add nuw nsw i64 %indvars.iv27, 1
  %20 = load i32, ptr %m_size.i18, align 4
  %21 = sext i32 %20 to i64
  %cmp16 = icmp slt i64 %indvars.iv.next28, %21
  br i1 %cmp16, label %for.body17, label %for.end37, !llvm.loop !84

for.end37:                                        ; preds = %for.body17, %for.cond14.preheader
  ret void
}